target datalayout = "e-m:e-p270:32:32-p271:32:32-p272:64:64-i64:64-i128:128-f80:128-n8:16:32:64-S128"
target triple = "x86_64-pc-linux-gnu"

%"struct.ozz::animation::offline::RawSkeleton" = type { %"class.std::vector" }
%"class.std::vector" = type { %"struct.std::_Vector_base" }
%"struct.std::_Vector_base" = type { %"struct.std::_Vector_base<ozz::animation::offline::RawSkeleton::Joint, ozz::StdAllocator<ozz::animation::offline::RawSkeleton::Joint>>::_Vector_impl" }
%"struct.std::_Vector_base<ozz::animation::offline::RawSkeleton::Joint, ozz::StdAllocator<ozz::animation::offline::RawSkeleton::Joint>>::_Vector_impl" = type { %"struct.std::_Vector_base<ozz::animation::offline::RawSkeleton::Joint, ozz::StdAllocator<ozz::animation::offline::RawSkeleton::Joint>>::_Vector_impl_data" }
%"struct.std::_Vector_base<ozz::animation::offline::RawSkeleton::Joint, ozz::StdAllocator<ozz::animation::offline::RawSkeleton::Joint>>::_Vector_impl_data" = type { ptr, ptr, ptr }
%"struct.ozz::io::internal::Array" = type { ptr, i64 }
%"class.ozz::io::OArchive" = type <{ ptr, i8, [7 x i8] }>

; Function Attrs: mustprogress uwtable
define linkonce_odr dso_local void @_ZN3ozz2io6ExternINS0_8internal5ArrayIKNS_9animation7offline11RawSkeleton5JointEEEE4SaveERNS0_8OArchiveEPKS9_m(ptr noundef nonnull align 8 dereferenceable(9) %0, ptr noundef %1, i64 noundef %2) #0 comdat align 2 {
  %4 = alloca ptr, align 8
  %5 = alloca ptr, align 8
  %6 = alloca ptr, align 8
  %7 = alloca ptr, align 8
  %8 = alloca i64, align 8
  %9 = alloca i64, align 8
  store ptr %0, ptr %6, align 8
  store ptr %1, ptr %7, align 8
  store i64 %2, ptr %8, align 8
  store i64 0, ptr %9, align 8
  br label %10

10:                                               ; preds = %24, %3
  %11 = load i64, ptr %9, align 8
  %12 = load i64, ptr %8, align 8
  %13 = icmp ult i64 %11, %12
  br i1 %13, label %14, label %27

14:                                               ; preds = %10
  %15 = load ptr, ptr %7, align 8
  %16 = load i64, ptr %9, align 8
  %17 = getelementptr inbounds %"struct.ozz::io::internal::Array", ptr %15, i64 %16
  %18 = load ptr, ptr %6, align 8
  store ptr %17, ptr %4, align 8
  store ptr %18, ptr %5, align 8
  %19 = load ptr, ptr %4, align 8
  %20 = load ptr, ptr %5, align 8
  %21 = load ptr, ptr %19, align 8
  %22 = getelementptr inbounds %"struct.ozz::io::internal::Array", ptr %19, i32 0, i32 1
  %23 = load i64, ptr %22, align 8
  call void @_ZN3ozz2io6ExternINS_9animation7offline11RawSkeleton5JointEE4SaveERNS0_8OArchiveEPKS5_m(ptr noundef nonnull align 8 dereferenceable(9) %20, ptr noundef %21, i64 noundef %23)
  br label %24

24:                                               ; preds = %14
  %25 = load i64, ptr %9, align 8
  %26 = add i64 %25, 1
  store i64 %26, ptr %9, align 8
  br label %10, !llvm.loop !9

27:                                               ; preds = %10
  ret void
}

; Function Attrs: mustprogress uwtable
define linkonce_odr dso_local void @_ZN3ozz2io8OArchive11SaveVersionINS0_8internal5ArrayIKNS_9animation7offline11RawSkeleton5JointEEEEEvv(ptr noundef nonnull align 8 dereferenceable(9) %0) #0 comdat align 2 {
  %2 = alloca ptr, align 8
  %3 = alloca i32, align 4
  store ptr %0, ptr %2, align 8
  %4 = load ptr, ptr %2, align 8
  store i32 1, ptr %3, align 4
  %5 = load i32, ptr %3, align 4
  call void @_ZN3ozz2io8OArchivelsEj(ptr noundef nonnull align 8 dereferenceable(9) %4, i32 noundef %5)
  ret void
}

; Function Attrs: mustprogress nounwind uwtable
define linkonce_odr dso_local void @_ZN3ozz2io8internal6TaggerIKNS1_5ArrayIKNS_9animation7offline11RawSkeleton5JointEEELb0EE5WriteERNS0_8OArchiveE(ptr noundef nonnull align 8 dereferenceable(9) %0) #1 comdat align 2 {
  %2 = alloca ptr, align 8
  store ptr %0, ptr %2, align 8
  ret void
}

; Function Attrs: mustprogress nounwind uwtable
define linkonce_odr dso_local noundef ptr @_ZNKSt6vectorIN3ozz9animation7offline11RawSkeleton5JointENS0_12StdAllocatorIS4_EEE11_M_data_ptrIS4_EEPT_SA_(ptr noundef nonnull align 8 dereferenceable(24) %0, ptr noundef %1) #1 comdat align 2 {
  %3 = alloca ptr, align 8
  %4 = alloca ptr, align 8
  store ptr %0, ptr %3, align 8
  store ptr %1, ptr %4, align 8
  %5 = load ptr, ptr %4, align 8
  ret ptr %5
}

; Function Attrs: mustprogress uwtable
define linkonce_odr dso_local void @_ZN3ozz2io8OArchivelsINS0_8internal5ArrayIKNS_9animation7offline11RawSkeleton5JointEEEEEvRKT_(ptr noundef nonnull align 8 dereferenceable(9) %0, ptr noundef nonnull align 8 dereferenceable(16) %1) #0 comdat align 2 {
  %3 = alloca ptr, align 8
  %4 = alloca ptr, align 8
  store ptr %0, ptr %3, align 8
  store ptr %1, ptr %4, align 8
  %5 = load ptr, ptr %3, align 8
  call void @_ZN3ozz2io8internal6TaggerIKNS1_5ArrayIKNS_9animation7offline11RawSkeleton5JointEEELb0EE5WriteERNS0_8OArchiveE(ptr noundef nonnull align 8 dereferenceable(9) %5)
  call void @_ZN3ozz2io8OArchive11SaveVersionINS0_8internal5ArrayIKNS_9animation7offline11RawSkeleton5JointEEEEEvv(ptr noundef nonnull align 8 dereferenceable(9) %5)
  %6 = load ptr, ptr %4, align 8
  call void @_ZN3ozz2io6ExternINS0_8internal5ArrayIKNS_9animation7offline11RawSkeleton5JointEEEE4SaveERNS0_8OArchiveEPKS9_m(ptr noundef nonnull align 8 dereferenceable(9) %5, ptr noundef %6, i64 noundef 1)
  ret void
}

; Function Attrs: mustprogress nounwind uwtable
define linkonce_odr dso_local noundef ptr @_ZNKSt6vectorIN3ozz9animation7offline11RawSkeleton5JointENS0_12StdAllocatorIS4_EEE4dataEv(ptr noundef nonnull align 8 dereferenceable(24) %0) #1 comdat align 2 {
  %2 = alloca ptr, align 8
  store ptr %0, ptr %2, align 8
  %3 = load ptr, ptr %2, align 8
  %4 = getelementptr inbounds %"struct.std::_Vector_base", ptr %3, i32 0, i32 0
  %5 = getelementptr inbounds %"struct.std::_Vector_base<ozz::animation::offline::RawSkeleton::Joint, ozz::StdAllocator<ozz::animation::offline::RawSkeleton::Joint>>::_Vector_impl_data", ptr %4, i32 0, i32 0
  %6 = load ptr, ptr %5, align 8
  %7 = call noundef ptr @_ZNKSt6vectorIN3ozz9animation7offline11RawSkeleton5JointENS0_12StdAllocatorIS4_EEE11_M_data_ptrIS4_EEPT_SA_(ptr noundef nonnull align 8 dereferenceable(24) %3, ptr noundef %6) #8
  ret ptr %7
}

; Function Attrs: mustprogress uwtable
define linkonce_odr dso_local void @_ZN3ozz2io8OArchivelsEj(ptr noundef nonnull align 8 dereferenceable(9) %0, i32 noundef %1) #0 comdat align 2 {
  %3 = alloca ptr, align 8
  %4 = alloca ptr, align 8
  %5 = alloca ptr, align 8
  %6 = alloca ptr, align 8
  %7 = alloca i32, align 4
  %8 = alloca ptr, align 8
  %9 = alloca ptr, align 8
  %10 = alloca i32, align 4
  %11 = alloca i32, align 4
  store ptr %0, ptr %9, align 8
  store i32 %1, ptr %10, align 4
  %12 = load ptr, ptr %9, align 8
  %13 = getelementptr inbounds %"class.ozz::io::OArchive", ptr %12, i32 0, i32 1
  %14 = load i8, ptr %13, align 8
  %15 = trunc i8 %14 to i1
  br i1 %15, label %16, label %80

16:                                               ; preds = %2
  %17 = load i32, ptr %10, align 4
  store i32 %17, ptr %7, align 4
  store ptr %7, ptr %8, align 8
  %18 = load ptr, ptr %8, align 8
  %19 = load ptr, ptr %8, align 8
  %20 = getelementptr inbounds i8, ptr %19, i64 3
  store ptr %18, ptr %3, align 8
  store ptr %20, ptr %4, align 8
  %21 = load ptr, ptr %3, align 8
  %22 = load i8, ptr %21, align 1
  %23 = zext i8 %22 to i32
  %24 = load ptr, ptr %4, align 8
  %25 = load i8, ptr %24, align 1
  %26 = zext i8 %25 to i32
  %27 = xor i32 %23, %26
  %28 = trunc i32 %27 to i8
  %29 = load ptr, ptr %3, align 8
  store i8 %28, ptr %29, align 1
  %30 = load ptr, ptr %3, align 8
  %31 = load i8, ptr %30, align 1
  %32 = zext i8 %31 to i32
  %33 = load ptr, ptr %4, align 8
  %34 = load i8, ptr %33, align 1
  %35 = zext i8 %34 to i32
  %36 = xor i32 %32, %35
  %37 = trunc i32 %36 to i8
  %38 = load ptr, ptr %4, align 8
  store i8 %37, ptr %38, align 1
  %39 = load ptr, ptr %3, align 8
  %40 = load i8, ptr %39, align 1
  %41 = zext i8 %40 to i32
  %42 = load ptr, ptr %4, align 8
  %43 = load i8, ptr %42, align 1
  %44 = zext i8 %43 to i32
  %45 = xor i32 %41, %44
  %46 = trunc i32 %45 to i8
  %47 = load ptr, ptr %3, align 8
  store i8 %46, ptr %47, align 1
  %48 = load ptr, ptr %8, align 8
  %49 = getelementptr inbounds i8, ptr %48, i64 1
  %50 = load ptr, ptr %8, align 8
  %51 = getelementptr inbounds i8, ptr %50, i64 2
  store ptr %49, ptr %5, align 8
  store ptr %51, ptr %6, align 8
  %52 = load ptr, ptr %5, align 8
  %53 = load i8, ptr %52, align 1
  %54 = zext i8 %53 to i32
  %55 = load ptr, ptr %6, align 8
  %56 = load i8, ptr %55, align 1
  %57 = zext i8 %56 to i32
  %58 = xor i32 %54, %57
  %59 = trunc i32 %58 to i8
  %60 = load ptr, ptr %5, align 8
  store i8 %59, ptr %60, align 1
  %61 = load ptr, ptr %5, align 8
  %62 = load i8, ptr %61, align 1
  %63 = zext i8 %62 to i32
  %64 = load ptr, ptr %6, align 8
  %65 = load i8, ptr %64, align 1
  %66 = zext i8 %65 to i32
  %67 = xor i32 %63, %66
  %68 = trunc i32 %67 to i8
  %69 = load ptr, ptr %6, align 8
  store i8 %68, ptr %69, align 1
  %70 = load ptr, ptr %5, align 8
  %71 = load i8, ptr %70, align 1
  %72 = zext i8 %71 to i32
  %73 = load ptr, ptr %6, align 8
  %74 = load i8, ptr %73, align 1
  %75 = zext i8 %74 to i32
  %76 = xor i32 %72, %75
  %77 = trunc i32 %76 to i8
  %78 = load ptr, ptr %5, align 8
  store i8 %77, ptr %78, align 1
  %79 = load i32, ptr %7, align 4
  br label %82

80:                                               ; preds = %2
  %81 = load i32, ptr %10, align 4
  br label %82

82:                                               ; preds = %80, %16
  %83 = phi i32 [ %79, %16 ], [ %81, %80 ]
  store i32 %83, ptr %11, align 4
  %84 = getelementptr inbounds %"class.ozz::io::OArchive", ptr %12, i32 0, i32 0
  %85 = load ptr, ptr %84, align 8
  %86 = load ptr, ptr %85, align 8
  %87 = getelementptr inbounds ptr, ptr %86, i64 2
  %88 = load ptr, ptr %87, align 8
  %89 = call noundef i64 %88(ptr noundef nonnull align 8 dereferenceable(8) %85, ptr noundef %11, i64 noundef 4)
  ret void
}

; Function Attrs: mustprogress nounwind uwtable
define linkonce_odr dso_local noundef i64 @_ZNKSt6vectorIN3ozz9animation7offline11RawSkeleton5JointENS0_12StdAllocatorIS4_EEE4sizeEv(ptr noundef nonnull align 8 dereferenceable(24) %0) #1 comdat align 2 {
  %2 = alloca ptr, align 8
  store ptr %0, ptr %2, align 8
  %3 = load ptr, ptr %2, align 8
  %4 = getelementptr inbounds %"struct.std::_Vector_base", ptr %3, i32 0, i32 0
  %5 = getelementptr inbounds %"struct.std::_Vector_base<ozz::animation::offline::RawSkeleton::Joint, ozz::StdAllocator<ozz::animation::offline::RawSkeleton::Joint>>::_Vector_impl_data", ptr %4, i32 0, i32 1
  %6 = load ptr, ptr %5, align 8
  %7 = getelementptr inbounds %"struct.std::_Vector_base", ptr %3, i32 0, i32 0
  %8 = getelementptr inbounds %"struct.std::_Vector_base<ozz::animation::offline::RawSkeleton::Joint, ozz::StdAllocator<ozz::animation::offline::RawSkeleton::Joint>>::_Vector_impl_data", ptr %7, i32 0, i32 0
  %9 = load ptr, ptr %8, align 8
  %10 = ptrtoint ptr %6 to i64
  %11 = ptrtoint ptr %9 to i64
  %12 = sub i64 %10, %11
  %13 = sdiv exact i64 %12, 96
  ret i64 %13
}

; Function Attrs: mustprogress uwtable
define linkonce_odr dso_local void @_ZN3ozz2io6ExternISt6vectorINS_9animation7offline11RawSkeleton5JointENS_12StdAllocatorIS6_EEEE4SaveERNS0_8OArchiveEPKS9_m(ptr noundef nonnull align 8 dereferenceable(9) %0, ptr noundef %1, i64 noundef %2) #0 comdat align 2 {
  %4 = alloca %"struct.ozz::io::internal::Array", align 8
  %5 = alloca ptr, align 8
  %6 = alloca i64, align 8
  %7 = alloca ptr, align 8
  %8 = alloca ptr, align 8
  %9 = alloca i64, align 8
  %10 = alloca i64, align 8
  %11 = alloca ptr, align 8
  %12 = alloca i32, align 4
  %13 = alloca %"struct.ozz::io::internal::Array", align 8
  store ptr %0, ptr %7, align 8
  store ptr %1, ptr %8, align 8
  store i64 %2, ptr %9, align 8
  store i64 0, ptr %10, align 8
  br label %14

14:                                               ; preds = %44, %3
  %15 = load i64, ptr %10, align 8
  %16 = load i64, ptr %9, align 8
  %17 = icmp ult i64 %15, %16
  br i1 %17, label %18, label %47

18:                                               ; preds = %14
  %19 = load ptr, ptr %8, align 8
  %20 = load i64, ptr %10, align 8
  %21 = getelementptr inbounds %"class.std::vector", ptr %19, i64 %20
  store ptr %21, ptr %11, align 8
  %22 = load ptr, ptr %11, align 8
  %23 = call noundef i64 @_ZNKSt6vectorIN3ozz9animation7offline11RawSkeleton5JointENS0_12StdAllocatorIS4_EEE4sizeEv(ptr noundef nonnull align 8 dereferenceable(24) %22) #8
  %24 = trunc i64 %23 to i32
  store i32 %24, ptr %12, align 4
  %25 = load ptr, ptr %7, align 8
  %26 = load i32, ptr %12, align 4
  call void @_ZN3ozz2io8OArchivelsEj(ptr noundef nonnull align 8 dereferenceable(9) %25, i32 noundef %26)
  %27 = load i32, ptr %12, align 4
  %28 = icmp ugt i32 %27, 0
  br i1 %28, label %29, label %43

29:                                               ; preds = %18
  %30 = load ptr, ptr %7, align 8
  %31 = load ptr, ptr %11, align 8
  %32 = call noundef ptr @_ZNKSt6vectorIN3ozz9animation7offline11RawSkeleton5JointENS0_12StdAllocatorIS4_EEE4dataEv(ptr noundef nonnull align 8 dereferenceable(24) %31) #8
  %33 = load i32, ptr %12, align 4
  %34 = zext i32 %33 to i64
  store ptr %32, ptr %5, align 8
  store i64 %34, ptr %6, align 8
  %35 = load ptr, ptr %5, align 8
  store ptr %35, ptr %4, align 8
  %36 = getelementptr inbounds %"struct.ozz::io::internal::Array", ptr %4, i32 0, i32 1
  %37 = load i64, ptr %6, align 8
  store i64 %37, ptr %36, align 8
  %38 = load { ptr, i64 }, ptr %4, align 8
  %39 = getelementptr inbounds { ptr, i64 }, ptr %13, i32 0, i32 0
  %40 = extractvalue { ptr, i64 } %38, 0
  store ptr %40, ptr %39, align 8
  %41 = getelementptr inbounds { ptr, i64 }, ptr %13, i32 0, i32 1
  %42 = extractvalue { ptr, i64 } %38, 1
  store i64 %42, ptr %41, align 8
  call void @_ZN3ozz2io8OArchivelsINS0_8internal5ArrayIKNS_9animation7offline11RawSkeleton5JointEEEEEvRKT_(ptr noundef nonnull align 8 dereferenceable(9) %30, ptr noundef nonnull align 8 dereferenceable(16) %13)
  br label %43

43:                                               ; preds = %29, %18
  br label %44

44:                                               ; preds = %43
  %45 = load i64, ptr %10, align 8
  %46 = add i64 %45, 1
  store i64 %46, ptr %10, align 8
  br label %14, !llvm.loop !8

47:                                               ; preds = %14
  ret void
}

; Function Attrs: mustprogress nounwind uwtable
define linkonce_odr dso_local void @_ZN3ozz2io8OArchive11SaveVersionISt6vectorINS_9animation7offline11RawSkeleton5JointENS_12StdAllocatorIS7_EEEEEvv(ptr noundef nonnull align 8 dereferenceable(9) %0) #1 comdat align 2 {
  %2 = alloca ptr, align 8
  store ptr %0, ptr %2, align 8
  ret void
}

; Function Attrs: mustprogress nounwind uwtable
define linkonce_odr dso_local void @_ZN3ozz2io8internal6TaggerIKSt6vectorINS_9animation7offline11RawSkeleton5JointENS_12StdAllocatorIS7_EEELb0EE5WriteERNS0_8OArchiveE(ptr noundef nonnull align 8 dereferenceable(9) %0) #1 comdat align 2 {
  %2 = alloca ptr, align 8
  store ptr %0, ptr %2, align 8
  ret void
}

; Function Attrs: mustprogress uwtable
define linkonce_odr dso_local void @_ZN3ozz2io8OArchivelsISt6vectorINS_9animation7offline11RawSkeleton5JointENS_12StdAllocatorIS7_EEEEEvRKT_(ptr noundef nonnull align 8 dereferenceable(9) %0, ptr noundef nonnull align 8 dereferenceable(24) %1) #0 comdat align 2 {
  %3 = alloca ptr, align 8
  %4 = alloca ptr, align 8
  store ptr %0, ptr %3, align 8
  store ptr %1, ptr %4, align 8
  %5 = load ptr, ptr %3, align 8
  call void @_ZN3ozz2io8internal6TaggerIKSt6vectorINS_9animation7offline11RawSkeleton5JointENS_12StdAllocatorIS7_EEELb0EE5WriteERNS0_8OArchiveE(ptr noundef nonnull align 8 dereferenceable(9) %5)
  call void @_ZN3ozz2io8OArchive11SaveVersionISt6vectorINS_9animation7offline11RawSkeleton5JointENS_12StdAllocatorIS7_EEEEEvv(ptr noundef nonnull align 8 dereferenceable(9) %5)
  %6 = load ptr, ptr %4, align 8
  call void @_ZN3ozz2io6ExternISt6vectorINS_9animation7offline11RawSkeleton5JointENS_12StdAllocatorIS6_EEEE4SaveERNS0_8OArchiveEPKS9_m(ptr noundef nonnull align 8 dereferenceable(9) %5, ptr noundef %6, i64 noundef 1)
  ret void
}

; Function Attrs: mustprogress uwtable
define dso_local void @_ZN3ozz2io6ExternINS_9animation7offline11RawSkeletonEE4SaveERNS0_8OArchiveEPKS4_m(ptr noundef nonnull align 8 dereferenceable(9) %0, ptr noundef %1, i64 noundef %2) #0 align 2 {
  %4 = alloca ptr, align 8
  %5 = alloca ptr, align 8
  %6 = alloca i64, align 8
  %7 = alloca i64, align 8
  %8 = alloca ptr, align 8
  store ptr %0, ptr %4, align 8
  store ptr %1, ptr %5, align 8
  store i64 %2, ptr %6, align 8
  store i64 0, ptr %7, align 8
  br label %9

9:                                                ; preds = %20, %3
  %10 = load i64, ptr %7, align 8
  %11 = load i64, ptr %6, align 8
  %12 = icmp ult i64 %10, %11
  br i1 %12, label %13, label %23

13:                                               ; preds = %9
  %14 = load ptr, ptr %5, align 8
  %15 = load i64, ptr %7, align 8
  %16 = getelementptr inbounds %"struct.ozz::animation::offline::RawSkeleton", ptr %14, i64 %15
  store ptr %16, ptr %8, align 8
  %17 = load ptr, ptr %4, align 8
  %18 = load ptr, ptr %8, align 8
  %19 = getelementptr inbounds %"struct.ozz::animation::offline::RawSkeleton", ptr %18, i32 0, i32 0
  call void @_ZN3ozz2io8OArchivelsISt6vectorINS_9animation7offline11RawSkeleton5JointENS_12StdAllocatorIS7_EEEEEvRKT_(ptr noundef nonnull align 8 dereferenceable(9) %17, ptr noundef nonnull align 8 dereferenceable(24) %19)
  br label %20

20:                                               ; preds = %13
  %21 = load i64, ptr %7, align 8
  %22 = add i64 %21, 1
  store i64 %22, ptr %7, align 8
  br label %9, !llvm.loop !5

23:                                               ; preds = %9
  ret void
}