; Function Attrs: mustprogress uwtable
define dso_local void @_ZN3ozz2io6ExternINS_9animation7offline11RawSkeletonEE4SaveERNS0_8OArchiveEPKS4_m(ptr noundef nonnull align 8 dereferenceable(9) %0, ptr nocapture noundef readonly %1, i64 noundef %2) local_unnamed_addr #0 align 2 {
  %4 = alloca i32, align 4
  %5 = alloca i32, align 4
  %.not = icmp eq i64 %2, 0
  br i1 %.not, label %._crit_edge, label %.lr.ph

.lr.ph:                                           ; preds = %3
  %6 = getelementptr inbounds i8, ptr %0, i64 8
  br label %7

7:                                                ; preds = %.lr.ph, %_ZN3ozz2io8OArchivelsISt6vectorINS_9animation7offline11RawSkeleton5JointENS_12StdAllocatorIS7_EEEEEvRKT_.exit
  %.06 = phi i64 [ 0, %.lr.ph ], [ %36, %_ZN3ozz2io8OArchivelsISt6vectorINS_9animation7offline11RawSkeleton5JointENS_12StdAllocatorIS7_EEEEEvRKT_.exit ]
  %8 = getelementptr inbounds %"struct.ozz::animation::offline::RawSkeleton", ptr %1, i64 %.06
  %9 = getelementptr inbounds i8, ptr %8, i64 8
  %10 = load ptr, ptr %9, align 8
  %11 = load ptr, ptr %8, align 8
  %12 = ptrtoint ptr %10 to i64
  %13 = ptrtoint ptr %11 to i64
  %14 = sub i64 %12, %13
  %15 = sdiv exact i64 %14, 96
  %16 = trunc i64 %15 to i32
  call void @llvm.lifetime.start.p0(i64 4, ptr nonnull %5)
  %17 = load i8, ptr %6, align 8
  %18 = trunc i8 %17 to i1
  %.sroa.0.0.insert.insert.i.i = call i32 @llvm.bswap.i32(i32 %16)
  %19 = select i1 %18, i32 %.sroa.0.0.insert.insert.i.i, i32 %16
  store i32 %19, ptr %5, align 4
  %20 = load ptr, ptr %0, align 8
  %21 = load ptr, ptr %20, align 8
  %22 = getelementptr inbounds i8, ptr %21, i64 16
  %23 = load ptr, ptr %22, align 8
  %24 = call noundef i64 %23(ptr noundef nonnull align 8 dereferenceable(8) %20, ptr noundef nonnull %5, i64 noundef 4)
  call void @llvm.lifetime.end.p0(i64 4, ptr nonnull %5)
  %.not.i.i = icmp eq i32 %16, 0
  br i1 %.not.i.i, label %_ZN3ozz2io8OArchivelsISt6vectorINS_9animation7offline11RawSkeleton5JointENS_12StdAllocatorIS7_EEEEEvRKT_.exit, label %25

25:                                               ; preds = %7
  %26 = load ptr, ptr %8, align 8
  %27 = and i64 %15, 4294967295
  call void @llvm.lifetime.start.p0(i64 4, ptr nonnull %4)
  %28 = load i8, ptr %6, align 8
  %29 = trunc i8 %28 to i1
  %30 = select i1 %29, i32 16777216, i32 1
  store i32 %30, ptr %4, align 4
  %31 = load ptr, ptr %0, align 8
  %32 = load ptr, ptr %31, align 8
  %33 = getelementptr inbounds i8, ptr %32, i64 16
  %34 = load ptr, ptr %33, align 8
  %35 = call noundef i64 %34(ptr noundef nonnull align 8 dereferenceable(8) %31, ptr noundef nonnull %4, i64 noundef 4)
  call void @llvm.lifetime.end.p0(i64 4, ptr nonnull %4)
  call void @_ZN3ozz2io6ExternINS_9animation7offline11RawSkeleton5JointEE4SaveERNS0_8OArchiveEPKS5_m(ptr noundef nonnull align 8 dereferenceable(9) %0, ptr noundef %26, i64 noundef %27)
  br label %_ZN3ozz2io8OArchivelsISt6vectorINS_9animation7offline11RawSkeleton5JointENS_12StdAllocatorIS7_EEEEEvRKT_.exit

_ZN3ozz2io8OArchivelsISt6vectorINS_9animation7offline11RawSkeleton5JointENS_12StdAllocatorIS7_EEEEEvRKT_.exit: ; preds = %7, %25
  %36 = add nuw i64 %.06, 1
  %exitcond.not = icmp eq i64 %36, %2
  br i1 %exitcond.not, label %._crit_edge, label %7, !llvm.loop !5

._crit_edge:                                      ; preds = %_ZN3ozz2io8OArchivelsISt6vectorINS_9animation7offline11RawSkeleton5JointENS_12StdAllocatorIS7_EEEEEvRKT_.exit, %3
  ret void
}